; Function Attrs: mustprogress uwtable
define hidden noundef zeroext i1 @_ZN3sls12array_plugin7eq_argsEPN3euf5enodeES3_(ptr noundef nonnull readnone align 8 captures(none) dereferenceable(96) %0, ptr noundef readonly captures(none) %1, ptr noundef readonly captures(none) %2) local_unnamed_addr #3 align 2 {
  %4 = load ptr, ptr %1, align 8, !tbaa !180
  %5 = tail call noundef ptr @_ZNK4expr8get_sortEv(ptr noundef nonnull align 4 dereferenceable(16) %4)
  %6 = getelementptr inbounds nuw i8, ptr %5, i64 24
  %7 = load ptr, ptr %6, align 8, !tbaa !136
  %8 = icmp eq ptr %7, null
  br i1 %8, label %.lr.ph, label %9

9:                                                ; preds = %3
  %10 = getelementptr inbounds nuw i8, ptr %7, i64 8
  %11 = load ptr, ptr %10, align 8, !tbaa !196
  %12 = icmp eq ptr %11, null
  br i1 %12, label %.lr.ph, label %_Z15get_array_arityPK4sort.exit

_Z15get_array_arityPK4sort.exit:                  ; preds = %9
  %13 = getelementptr inbounds i8, ptr %11, i64 -4
  %14 = load i32, ptr %13, align 4, !tbaa !116
  %15 = add i32 %14, -1
  %.not1112 = icmp ult i32 %15, 2
  br i1 %.not1112, label %.critedge, label %.lr.ph

.lr.ph:                                           ; preds = %9, %3, %_Z15get_array_arityPK4sort.exit
  %16 = phi i32 [ %15, %_Z15get_array_arityPK4sort.exit ], [ -1, %3 ], [ -1, %9 ]
  %17 = getelementptr inbounds nuw i8, ptr %1, i64 176
  %18 = getelementptr inbounds nuw i8, ptr %2, i64 176
  %wide.trip.count = zext i32 %16 to i64
  br label %19

19:                                               ; preds = %19, %.lr.ph
  %indvars.iv = phi i64 [ 1, %.lr.ph ], [ %indvars.iv.next, %19 ]
  %20 = getelementptr inbounds nuw [0 x ptr], ptr %17, i64 0, i64 %indvars.iv
  %21 = load ptr, ptr %20, align 8, !tbaa !129
  %22 = getelementptr inbounds nuw i8, ptr %21, i64 64
  %23 = load ptr, ptr %22, align 8, !tbaa !189
  %24 = getelementptr inbounds nuw [0 x ptr], ptr %18, i64 0, i64 %indvars.iv
  %25 = load ptr, ptr %24, align 8, !tbaa !129
  %26 = getelementptr inbounds nuw i8, ptr %25, i64 64
  %27 = load ptr, ptr %26, align 8, !tbaa !189
  %.not = icmp eq ptr %23, %27
  %indvars.iv.next = add nuw nsw i64 %indvars.iv, 1
  %exitcond.not = icmp ne i64 %indvars.iv.next, %wide.trip.count
  %or.cond.not = select i1 %.not, i1 %exitcond.not, i1 false
  br i1 %or.cond.not, label %19, label %.critedge, !llvm.loop !197

.critedge:                                        ; preds = %19, %_Z15get_array_arityPK4sort.exit
  %.not11.lcssa = phi i1 [ true, %_Z15get_array_arityPK4sort.exit ], [ %.not, %19 ]
  ret i1 %.not11.lcssa
}